; Function Attrs: mustprogress nounwind uwtable
define hidden void @_ZNK5clang7targets14M68kTargetInfo20handleAsmEscapedCharB5cxx11Ec(ptr dead_on_unwind noalias writable sret(%"class.std::optional.46") align 8 %0, ptr nocapture nonnull readnone align 8 %1, i8 noundef signext %2) unnamed_addr #0 align 2 {
  %4 = alloca %"class.std::__cxx11::basic_string", align 8
  %5 = alloca %"class.std::allocator", align 1
  switch i8 %2, label %9 [
    i8 46, label %11
    i8 35, label %11
    i8 47, label %6
    i8 36, label %7
    i8 38, label %8
  ]

6:                                                ; preds = %3
  br label %11

7:                                                ; preds = %3
  br label %11

8:                                                ; preds = %3
  br label %11

9:                                                ; preds = %3
  %10 = getelementptr inbounds nuw i8, ptr %0, i64 32
  store i8 0, ptr %10, align 8
  br label %14

11:                                               ; preds = %3, %3, %8, %7, %6
  %.0 = phi i8 [ 100, %8 ], [ 115, %7 ], [ 37, %6 ], [ %2, %3 ], [ %2, %3 ]
  call void @_ZNSaIcEC1Ev(ptr noundef nonnull align 1 dereferenceable(1) %5) #12
  %12 = call noundef ptr @_ZNSt7__cxx1112basic_stringIcSt11char_traitsIcESaIcEE13_M_local_dataEv(ptr noundef nonnull align 8 dereferenceable(32) %4) #12
  call void @_ZNSt7__cxx1112basic_stringIcSt11char_traitsIcESaIcEE12_Alloc_hiderC1EPcRKS3_(ptr noundef nonnull align 8 dereferenceable(8) %4, ptr noundef %12, ptr noundef nonnull align 1 dereferenceable(1) %5) #12
  call void @_ZNSt7__cxx1112basic_stringIcSt11char_traitsIcESaIcEE12_M_constructEmc(ptr noundef nonnull align 8 dereferenceable(32) %4, i64 noundef 1, i8 noundef signext %.0) #12
  call void @_ZNSt7__cxx1112basic_stringIcSt11char_traitsIcESaIcEEC1EOS4_(ptr noundef nonnull align 8 dereferenceable(32) %0, ptr noundef nonnull align 8 dereferenceable(32) %4) #12
  %13 = getelementptr inbounds nuw i8, ptr %0, i64 32
  store i8 1, ptr %13, align 8
  call void @_ZNSt7__cxx1112basic_stringIcSt11char_traitsIcESaIcEED1Ev(ptr noundef nonnull align 8 dereferenceable(32) %4) #12
  call void @_ZNSaIcED1Ev(ptr noundef nonnull align 1 dereferenceable(1) %5) #12
  br label %14

14:                                               ; preds = %11, %9
  ret void
}